target datalayout = "e-m:e-p270:32:32-p271:32:32-p272:64:64-i64:64-i128:128-f80:128-n8:16:32:64-S128"
target triple = "x86_64-pc-linux-gnu"

; Function Attrs: nounwind uwtable
define hidden i32 @exr_attr_string_vector_add_entry(ptr noundef %0, ptr noundef %1, ptr noundef %2) #0 {
  %4 = alloca ptr, align 8
  %5 = alloca ptr, align 8
  %6 = alloca ptr, align 8
  %7 = alloca i32, align 4
  store ptr %0, ptr %4, align 8, !tbaa !3
  store ptr %1, ptr %5, align 8, !tbaa !8
  store ptr %2, ptr %6, align 8, !tbaa !36
  call void @llvm.lifetime.start.p0(i64 4, ptr %7) #6
  store i32 0, ptr %7, align 4, !tbaa !9
  %8 = load ptr, ptr %6, align 8, !tbaa !36
  %9 = icmp ne ptr %8, null
  br i1 %9, label %10, label %14

10:                                               ; preds = %3
  %11 = load ptr, ptr %6, align 8, !tbaa !36
  %12 = call i64 @strlen(ptr noundef %11) #7
  %13 = trunc i64 %12 to i32
  store i32 %13, ptr %7, align 4, !tbaa !9
  br label %14

14:                                               ; preds = %10, %3
  %15 = load ptr, ptr %4, align 8, !tbaa !3
  %16 = load ptr, ptr %5, align 8, !tbaa !8
  %17 = load ptr, ptr %6, align 8, !tbaa !36
  %18 = load i32, ptr %7, align 4, !tbaa !9
  %19 = call i32 @exr_attr_string_vector_add_entry_with_length(ptr noundef %15, ptr noundef %16, ptr noundef %17, i32 noundef %18)
  call void @llvm.lifetime.end.p0(i64 4, ptr %7) #6
  ret i32 %19
}