; Function Attrs: nounwind uwtable
define hidden i32 @exr_attr_string_vector_add_entry(ptr noundef %0, ptr noundef %1, ptr noundef %2) local_unnamed_addr #0 {
  %.not = icmp eq ptr %2, null
  br i1 %.not, label %.split, label %.split6

.split:                                           ; preds = %3
  %4 = tail call i32 @exr_attr_string_vector_add_entry_with_length(ptr noundef %0, ptr noundef %1, ptr noundef null, i32 noundef 0)
  br label %8

.split6:                                          ; preds = %3
  %5 = tail call i64 @strlen(ptr noundef nonnull dereferenceable(1) %2) #6
  %6 = trunc i64 %5 to i32
  %7 = tail call i32 @exr_attr_string_vector_add_entry_with_length(ptr noundef %0, ptr noundef %1, ptr noundef nonnull %2, i32 noundef %6)
  br label %8

8:                                                ; preds = %.split, %.split6
  %phi.call = phi i32 [ %4, %.split ], [ %7, %.split6 ]
  ret i32 %phi.call
}